; ModuleID = 'source-C-CXX/57/199.c'
source_filename = "source-C-CXX/57/199.c"
target datalayout = "e-m:e-p270:32:32-p271:32:32-p272:64:64-i64:64-f80:128-n8:16:32:64-S128"
target triple = "x86_64-pc-linux-gnu"

%struct._IO_FILE = type { i32, i8*, i8*, i8*, i8*, i8*, i8*, i8*, i8*, i8*, i8*, i8*, %struct._IO_marker*, %struct._IO_FILE*, i32, i32, i64, i16, i8, [1 x i8], i8*, i64, %struct._IO_codecvt*, %struct._IO_wide_data*, %struct._IO_FILE*, i8*, i64, i32, [20 x i8] }
%struct._IO_marker = type opaque
%struct._IO_codecvt = type opaque
%struct._IO_wide_data = type opaque

@.str = private unnamed_addr constant [3 x i8] c"%d\00", align 1
@.str.1 = private unnamed_addr constant [4 x i8] c"%d\0A\00", align 1
@stdin = external local_unnamed_addr global %struct._IO_FILE*, align 8

; Function Attrs: nounwind sspstrong uwtable
define dso_local i32 @main() local_unnamed_addr #0 {
  %1 = alloca [1000 x i8], align 16
  %2 = alloca i32, align 4
  %3 = getelementptr inbounds [1000 x i8], [1000 x i8]* %1, i64 0, i64 0
  call void @llvm.lifetime.start.p0i8(i64 1000, i8* nonnull %3) #5
  %4 = bitcast i32* %2 to i8*
  call void @llvm.lifetime.start.p0i8(i64 4, i8* nonnull %4) #5
  %5 = call i32 (i8*, ...) @__isoc99_scanf(i8* getelementptr inbounds ([3 x i8], [3 x i8]* @.str, i64 0, i64 0), i32* nonnull %2)
  %6 = load %struct._IO_FILE*, %struct._IO_FILE** @stdin, align 8, !tbaa !5
  %7 = call i32 @getc(%struct._IO_FILE* %6) #5
  %8 = load i32, i32* %2, align 4, !tbaa !9
  %9 = icmp sgt i32 %8, 0
  br i1 %9, label %10, label %50

10:                                               ; preds = %0, %44
  %11 = phi i32 [ %47, %44 ], [ 0, %0 ]
  %12 = call i32 (i8*, ...) bitcast (i32 (...)* @gets to i32 (i8*, ...)*)(i8* nonnull %3) #5
  %13 = load i8, i8* %3, align 16, !tbaa !11
  %14 = icmp eq i8 %13, 95
  %15 = and i8 %13, -33
  %16 = add i8 %15, -65
  %17 = icmp ult i8 %16, 26
  %18 = or i1 %17, %14
  br i1 %18, label %19, label %44

19:                                               ; preds = %10
  %20 = call i64 @strlen(i8* noundef nonnull %3) #6
  %21 = icmp eq i64 %20, 0
  br i1 %21, label %44, label %22

22:                                               ; preds = %19
  %23 = icmp slt i8 %13, 48
  %24 = add i8 %13, -58
  %25 = icmp ult i8 %24, 7
  %26 = or i1 %23, %25
  br i1 %26, label %44, label %27

27:                                               ; preds = %22, %37
  %28 = phi i64 [ %35, %37 ], [ 0, %22 ]
  %29 = phi i8 [ %39, %37 ], [ %13, %22 ]
  %30 = freeze i8 %29
  %31 = add i8 %30, -91
  %32 = icmp ult i8 %31, 4
  br i1 %32, label %44, label %33

33:                                               ; preds = %27
  switch i8 %30, label %34 [
    i8 127, label %44
    i8 126, label %44
    i8 125, label %44
    i8 124, label %44
    i8 123, label %44
    i8 96, label %44
  ]

34:                                               ; preds = %33
  %35 = add nuw i64 %28, 1
  %36 = icmp eq i64 %35, %20
  br i1 %36, label %44, label %37, !llvm.loop !12

37:                                               ; preds = %34
  %38 = getelementptr inbounds [1000 x i8], [1000 x i8]* %1, i64 0, i64 %35
  %39 = load i8, i8* %38, align 1, !tbaa !11
  %40 = icmp slt i8 %39, 48
  %41 = add i8 %39, -58
  %42 = icmp ult i8 %41, 7
  %43 = or i1 %40, %42
  br i1 %43, label %44, label %27

44:                                               ; preds = %33, %33, %33, %33, %33, %33, %27, %34, %37, %22, %19, %10
  %45 = phi i32 [ 0, %10 ], [ 1, %19 ], [ 0, %22 ], [ 0, %37 ], [ 1, %34 ], [ 0, %27 ], [ 0, %33 ], [ 0, %33 ], [ 0, %33 ], [ 0, %33 ], [ 0, %33 ], [ 0, %33 ]
  %46 = call i32 (i8*, ...) @printf(i8* nonnull dereferenceable(1) getelementptr inbounds ([4 x i8], [4 x i8]* @.str.1, i64 0, i64 0), i32 %45)
  %47 = add nuw nsw i32 %11, 1
  %48 = load i32, i32* %2, align 4, !tbaa !9
  %49 = icmp slt i32 %47, %48
  br i1 %49, label %10, label %50, !llvm.loop !14

50:                                               ; preds = %44, %0
  call void @llvm.lifetime.end.p0i8(i64 4, i8* nonnull %4) #5
  call void @llvm.lifetime.end.p0i8(i64 1000, i8* nonnull %3) #5
  ret i32 0
}

; Function Attrs: argmemonly mustprogress nofree nosync nounwind willreturn
declare void @llvm.lifetime.start.p0i8(i64 immarg, i8* nocapture) #1

; Function Attrs: nofree nounwind
declare noundef i32 @__isoc99_scanf(i8* nocapture noundef readonly, ...) local_unnamed_addr #2

declare i32 @gets(...) local_unnamed_addr #3

; Function Attrs: argmemonly mustprogress nofree nounwind readonly willreturn
declare i64 @strlen(i8* nocapture) local_unnamed_addr #4

; Function Attrs: argmemonly mustprogress nofree nosync nounwind willreturn
declare void @llvm.lifetime.end.p0i8(i64 immarg, i8* nocapture) #1

; Function Attrs: nofree nounwind
declare noundef i32 @printf(i8* nocapture noundef readonly, ...) local_unnamed_addr #2

; Function Attrs: nofree nounwind
declare noundef i32 @getc(%struct._IO_FILE* nocapture noundef) local_unnamed_addr #2


!llvm.module.flags = !{!0, !1, !2, !3}
!llvm.ident = !{!4}

!0 = !{i32 1, !"wchar_size", i32 4}
!1 = !{i32 7, !"PIC Level", i32 2}
!2 = !{i32 7, !"PIE Level", i32 2}
!3 = !{i32 7, !"uwtable", i32 1}
!4 = !{!"clang version 13.0.0"}
!5 = !{!6, !6, i64 0}
!6 = !{!"any pointer", !7, i64 0}
!7 = !{!"omnipotent char", !8, i64 0}
!8 = !{!"Simple C/C++ TBAA"}
!9 = !{!10, !10, i64 0}
!10 = !{!"int", !7, i64 0}
!11 = !{!7, !7, i64 0}
!12 = distinct !{!12, !13}
!13 = !{!"llvm.loop.mustprogress"}
!14 = distinct !{!14, !13}
